; Function Attrs: mustprogress uwtable
define void @_ZN5arrow8internal19DictionaryMemoTableC2EPNS_10MemoryPoolERKSt10shared_ptrINS_8DataTypeEE(ptr noundef nonnull writeonly align 8 captures(none) dereferenceable(8) %0, ptr noundef %1, ptr noundef nonnull readonly align 8 captures(none) dereferenceable(16) %2) unnamed_addr #1 align 2 personality ptr @__gxx_personality_v0 {
  %4 = alloca %"class.std::shared_ptr", align 8
  %5 = tail call noalias noundef nonnull dereferenceable(32) ptr @_Znwm(i64 noundef 32) #25
  %6 = load ptr, ptr %2, align 8, !tbaa !32
  store ptr %6, ptr %4, align 8, !tbaa !32
  %7 = getelementptr inbounds nuw i8, ptr %4, i64 8
  %8 = getelementptr inbounds nuw i8, ptr %2, i64 8
  %9 = load ptr, ptr %8, align 8, !tbaa !38
  store ptr %9, ptr %7, align 8, !tbaa !38
  %.not.i.i.i = icmp eq ptr %9, null
  br i1 %.not.i.i.i, label %_ZNSt10shared_ptrIN5arrow8DataTypeEEC2ERKS2_.exit, label %10

10:                                               ; preds = %3
  %11 = getelementptr inbounds nuw i8, ptr %9, i64 8
  %12 = load i8, ptr @__libc_single_threaded, align 1, !tbaa !39
  %.not.i.i.i.i = icmp eq i8 %12, 0
  br i1 %.not.i.i.i.i, label %16, label %13

13:                                               ; preds = %10
  %14 = load i32, ptr %11, align 4, !tbaa !40
  %15 = add nsw i32 %14, 1
  store i32 %15, ptr %11, align 4, !tbaa !40
  br label %_ZNSt10shared_ptrIN5arrow8DataTypeEEC2ERKS2_.exit

16:                                               ; preds = %10
  %17 = atomicrmw volatile add ptr %11, i32 1 acq_rel, align 4
  br label %_ZNSt10shared_ptrIN5arrow8DataTypeEEC2ERKS2_.exit

_ZNSt10shared_ptrIN5arrow8DataTypeEEC2ERKS2_.exit: ; preds = %3, %13, %16
  invoke void @_ZN5arrow8internal19DictionaryMemoTable23DictionaryMemoTableImplC2EPNS_10MemoryPoolESt10shared_ptrINS_8DataTypeEE(ptr noundef nonnull align 8 dereferenceable(32) %5, ptr noundef %1, ptr noundef nonnull %4)
          to label %18 unwind label %41

18:                                               ; preds = %_ZNSt10shared_ptrIN5arrow8DataTypeEEC2ERKS2_.exit
  store ptr %5, ptr %0, align 8, !tbaa !41
  %19 = load ptr, ptr %7, align 8, !tbaa !38
  %.not.i.i = icmp eq ptr %19, null
  br i1 %.not.i.i, label %_ZNSt12__shared_ptrIN5arrow8DataTypeELN9__gnu_cxx12_Lock_policyE2EED2Ev.exit, label %20

20:                                               ; preds = %18
  %21 = getelementptr inbounds nuw i8, ptr %19, i64 8
  %22 = load atomic i64, ptr %21 acquire, align 8
  %23 = icmp eq i64 %22, 4294967297
  %24 = trunc i64 %22 to i32
  br i1 %23, label %25, label %33

25:                                               ; preds = %20
  store i32 0, ptr %21, align 8, !tbaa !43
  %26 = getelementptr inbounds nuw i8, ptr %19, i64 12
  store i32 0, ptr %26, align 4, !tbaa !45
  %27 = load ptr, ptr %19, align 8, !tbaa !46
  %28 = getelementptr inbounds nuw i8, ptr %27, i64 16
  %29 = load ptr, ptr %28, align 8
  call void %29(ptr noundef nonnull align 8 dereferenceable(16) %19) #26
  %30 = load ptr, ptr %19, align 8, !tbaa !46
  %31 = getelementptr inbounds nuw i8, ptr %30, i64 24
  %32 = load ptr, ptr %31, align 8
  call void %32(ptr noundef nonnull align 8 dereferenceable(16) %19) #26
  br label %_ZNSt12__shared_ptrIN5arrow8DataTypeELN9__gnu_cxx12_Lock_policyE2EED2Ev.exit

33:                                               ; preds = %20
  %34 = load i8, ptr @__libc_single_threaded, align 1, !tbaa !39
  %.not.i.i.i5 = icmp eq i8 %34, 0
  br i1 %.not.i.i.i5, label %37, label %35

35:                                               ; preds = %33
  %36 = add nsw i32 %24, -1
  store i32 %36, ptr %21, align 4, !tbaa !40
  br label %_ZN9__gnu_cxx27__exchange_and_add_dispatchEPii.exit.i.i.i

37:                                               ; preds = %33
  %38 = atomicrmw volatile add ptr %21, i32 -1 acq_rel, align 4
  br label %_ZN9__gnu_cxx27__exchange_and_add_dispatchEPii.exit.i.i.i

_ZN9__gnu_cxx27__exchange_and_add_dispatchEPii.exit.i.i.i: ; preds = %37, %35
  %.0.i.i.i.i = phi i32 [ %24, %35 ], [ %38, %37 ]
  %39 = icmp eq i32 %.0.i.i.i.i, 1
  br i1 %39, label %40, label %_ZNSt12__shared_ptrIN5arrow8DataTypeELN9__gnu_cxx12_Lock_policyE2EED2Ev.exit, !prof !48

40:                                               ; preds = %_ZN9__gnu_cxx27__exchange_and_add_dispatchEPii.exit.i.i.i
  call void @_ZNSt16_Sp_counted_baseILN9__gnu_cxx12_Lock_policyE2EE24_M_release_last_use_coldEv(ptr noundef nonnull align 8 dereferenceable(16) %19) #26
  br label %_ZNSt12__shared_ptrIN5arrow8DataTypeELN9__gnu_cxx12_Lock_policyE2EED2Ev.exit

_ZNSt12__shared_ptrIN5arrow8DataTypeELN9__gnu_cxx12_Lock_policyE2EED2Ev.exit: ; preds = %18, %25, %_ZN9__gnu_cxx27__exchange_and_add_dispatchEPii.exit.i.i.i, %40
  ret void

41:                                               ; preds = %_ZNSt10shared_ptrIN5arrow8DataTypeEEC2ERKS2_.exit
  %42 = landingpad { ptr, i32 }
          cleanup
  call void @_ZNSt12__shared_ptrIN5arrow8DataTypeELN9__gnu_cxx12_Lock_policyE2EED2Ev(ptr noundef nonnull align 8 dereferenceable(16) %4) #26
  call void @_ZdlPvm(ptr noundef nonnull %5, i64 noundef 32) #27
  resume { ptr, i32 } %42
}